; Function Attrs: mustprogress uwtable
define void @_ZN2cv4text10ERFilterNM10setMaxAreaEf(ptr noundef nonnull align 8 captures(none) dereferenceable(160) %0, float noundef %1) unnamed_addr #3 align 2 personality ptr @__gxx_personality_v0 {
  %3 = alloca %"class.std::__cxx11::basic_string", align 8
  %4 = alloca %"class.std::allocator.4", align 1
  %5 = alloca %"class.std::__cxx11::basic_string", align 8
  %6 = alloca %"class.std::allocator.4", align 1
  %7 = fcmp ugt float %1, 1.000000e+00
  br i1 %7, label %8, label %21

8:                                                ; preds = %2
  call void @llvm.lifetime.start.p0(i64 32, ptr nonnull %3) #37
  call void @llvm.lifetime.start.p0(i64 1, ptr nonnull %4) #37
  invoke void @_ZNSt7__cxx1112basic_stringIcSt11char_traitsIcESaIcEEC2EPKcRKS3_(ptr noundef nonnull align 8 dereferenceable(32) %3, ptr noundef nonnull @.str.6, ptr noundef nonnull align 1 dereferenceable(1) %4)
          to label %9 unwind label %11

9:                                                ; preds = %8
  invoke void @_ZN2cv5errorEiRKNSt7__cxx1112basic_stringIcSt11char_traitsIcESaIcEEEPKcS9_i(i32 noundef -215, ptr noundef nonnull align 8 dereferenceable(32) %3, ptr noundef nonnull @__func__._ZN2cv4text10ERFilterNM10setMaxAreaEf, ptr noundef nonnull @.str.1, i32 noundef 975) #38
          to label %10 unwind label %13

10:                                               ; preds = %9
  unreachable

11:                                               ; preds = %8
  %12 = landingpad { ptr, i32 }
          cleanup
  br label %_ZNSt7__cxx1112basic_stringIcSt11char_traitsIcESaIcEED2Ev.exit

13:                                               ; preds = %9
  %14 = landingpad { ptr, i32 }
          cleanup
  %15 = load ptr, ptr %3, align 8, !tbaa !76
  %16 = getelementptr inbounds nuw i8, ptr %3, i64 16
  %17 = icmp eq ptr %15, %16
  br i1 %17, label %_ZNKSt7__cxx1112basic_stringIcSt11char_traitsIcESaIcEE11_M_is_localEv.exit.thread.i.i, label %_ZNKSt7__cxx1112basic_stringIcSt11char_traitsIcESaIcEE11_M_is_localEv.exit.i.i

_ZNKSt7__cxx1112basic_stringIcSt11char_traitsIcESaIcEE11_M_is_localEv.exit.thread.i.i: ; preds = %13
  %18 = getelementptr inbounds nuw i8, ptr %3, i64 8
  %19 = load i64, ptr %18, align 8, !tbaa !79
  %20 = icmp ult i64 %19, 16
  call void @llvm.assume(i1 %20)
  br label %_ZNSt7__cxx1112basic_stringIcSt11char_traitsIcESaIcEED2Ev.exit

_ZNKSt7__cxx1112basic_stringIcSt11char_traitsIcESaIcEE11_M_is_localEv.exit.i.i: ; preds = %13
  call void @_ZdlPv(ptr noundef %15) #36
  br label %_ZNSt7__cxx1112basic_stringIcSt11char_traitsIcESaIcEED2Ev.exit

_ZNSt7__cxx1112basic_stringIcSt11char_traitsIcESaIcEED2Ev.exit: ; preds = %_ZNKSt7__cxx1112basic_stringIcSt11char_traitsIcESaIcEE11_M_is_localEv.exit.i.i, %_ZNKSt7__cxx1112basic_stringIcSt11char_traitsIcESaIcEE11_M_is_localEv.exit.thread.i.i, %11
  %.pn = phi { ptr, i32 } [ %12, %11 ], [ %14, %_ZNKSt7__cxx1112basic_stringIcSt11char_traitsIcESaIcEE11_M_is_localEv.exit.thread.i.i ], [ %14, %_ZNKSt7__cxx1112basic_stringIcSt11char_traitsIcESaIcEE11_M_is_localEv.exit.i.i ]
  call void @llvm.lifetime.end.p0(i64 1, ptr nonnull %4) #37
  call void @llvm.lifetime.end.p0(i64 32, ptr nonnull %3) #37
  br label %40

21:                                               ; preds = %2
  %22 = getelementptr inbounds nuw i8, ptr %0, i64 28
  %23 = load float, ptr %22, align 4, !tbaa !62
  %24 = fcmp olt float %23, %1
  br i1 %24, label %38, label %25

25:                                               ; preds = %21
  call void @llvm.lifetime.start.p0(i64 32, ptr nonnull %5) #37
  call void @llvm.lifetime.start.p0(i64 1, ptr nonnull %6) #37
  invoke void @_ZNSt7__cxx1112basic_stringIcSt11char_traitsIcESaIcEEC2EPKcRKS3_(ptr noundef nonnull align 8 dereferenceable(32) %5, ptr noundef nonnull @.str.7, ptr noundef nonnull align 1 dereferenceable(1) %6)
          to label %26 unwind label %28

26:                                               ; preds = %25
  invoke void @_ZN2cv5errorEiRKNSt7__cxx1112basic_stringIcSt11char_traitsIcESaIcEEEPKcS9_i(i32 noundef -215, ptr noundef nonnull align 8 dereferenceable(32) %5, ptr noundef nonnull @__func__._ZN2cv4text10ERFilterNM10setMaxAreaEf, ptr noundef nonnull @.str.1, i32 noundef 976) #38
          to label %27 unwind label %30

27:                                               ; preds = %26
  unreachable

28:                                               ; preds = %25
  %29 = landingpad { ptr, i32 }
          cleanup
  br label %_ZNSt7__cxx1112basic_stringIcSt11char_traitsIcESaIcEED2Ev.exit15

30:                                               ; preds = %26
  %31 = landingpad { ptr, i32 }
          cleanup
  %32 = load ptr, ptr %5, align 8, !tbaa !76
  %33 = getelementptr inbounds nuw i8, ptr %5, i64 16
  %34 = icmp eq ptr %32, %33
  br i1 %34, label %_ZNKSt7__cxx1112basic_stringIcSt11char_traitsIcESaIcEE11_M_is_localEv.exit.thread.i.i14, label %_ZNKSt7__cxx1112basic_stringIcSt11char_traitsIcESaIcEE11_M_is_localEv.exit.i.i13

_ZNKSt7__cxx1112basic_stringIcSt11char_traitsIcESaIcEE11_M_is_localEv.exit.thread.i.i14: ; preds = %30
  %35 = getelementptr inbounds nuw i8, ptr %5, i64 8
  %36 = load i64, ptr %35, align 8, !tbaa !79
  %37 = icmp ult i64 %36, 16
  call void @llvm.assume(i1 %37)
  br label %_ZNSt7__cxx1112basic_stringIcSt11char_traitsIcESaIcEED2Ev.exit15

_ZNKSt7__cxx1112basic_stringIcSt11char_traitsIcESaIcEE11_M_is_localEv.exit.i.i13: ; preds = %30
  call void @_ZdlPv(ptr noundef %32) #36
  br label %_ZNSt7__cxx1112basic_stringIcSt11char_traitsIcESaIcEED2Ev.exit15

_ZNSt7__cxx1112basic_stringIcSt11char_traitsIcESaIcEED2Ev.exit15: ; preds = %_ZNKSt7__cxx1112basic_stringIcSt11char_traitsIcESaIcEE11_M_is_localEv.exit.i.i13, %_ZNKSt7__cxx1112basic_stringIcSt11char_traitsIcESaIcEE11_M_is_localEv.exit.thread.i.i14, %28
  %.pn10 = phi { ptr, i32 } [ %29, %28 ], [ %31, %_ZNKSt7__cxx1112basic_stringIcSt11char_traitsIcESaIcEE11_M_is_localEv.exit.thread.i.i14 ], [ %31, %_ZNKSt7__cxx1112basic_stringIcSt11char_traitsIcESaIcEE11_M_is_localEv.exit.i.i13 ]
  call void @llvm.lifetime.end.p0(i64 1, ptr nonnull %6) #37
  call void @llvm.lifetime.end.p0(i64 32, ptr nonnull %5) #37
  br label %40

38:                                               ; preds = %21
  %39 = getelementptr inbounds nuw i8, ptr %0, i64 24
  store float %1, ptr %39, align 8, !tbaa !63
  ret void

40:                                               ; preds = %_ZNSt7__cxx1112basic_stringIcSt11char_traitsIcESaIcEED2Ev.exit15, %_ZNSt7__cxx1112basic_stringIcSt11char_traitsIcESaIcEED2Ev.exit
  %.pn10.pn = phi { ptr, i32 } [ %.pn10, %_ZNSt7__cxx1112basic_stringIcSt11char_traitsIcESaIcEED2Ev.exit15 ], [ %.pn, %_ZNSt7__cxx1112basic_stringIcSt11char_traitsIcESaIcEED2Ev.exit ]
  resume { ptr, i32 } %.pn10.pn
}